; Function Attrs: mustprogress uwtable
define noundef signext range(i8 0, 2) i8 @_ZNK6icu_7717RuleBasedTimeZone17getNextTransitionEdaRNS_18TimeZoneTransitionE(ptr noundef nonnull align 8 captures(none) dereferenceable(105) %0, double noundef %1, i8 noundef signext %2, ptr noundef nonnull align 8 dereferenceable(32) %3) unnamed_addr #1 align 2 {
  %5 = alloca i32, align 4
  %6 = alloca double, align 8
  %7 = alloca ptr, align 8
  %8 = alloca ptr, align 8
  call void @llvm.lifetime.start.p0(i64 4, ptr nonnull %5) #14
  store i32 0, ptr %5, align 4, !tbaa !21
  tail call void @umtx_lock_77(ptr noundef nonnull @_ZZNK6icu_7717RuleBasedTimeZone13completeConstER10UErrorCodeE5gLock)
  %9 = getelementptr inbounds nuw i8, ptr %0, i64 104
  %10 = load i8, ptr %9, align 8, !tbaa !18
  %.not4.i = icmp eq i8 %10, 0
  br i1 %.not4.i, label %11, label %_ZNK6icu_7717RuleBasedTimeZone13completeConstER10UErrorCode.exit

11:                                               ; preds = %4
  call void @_ZN6icu_7717RuleBasedTimeZone8completeER10UErrorCode(ptr noundef nonnull align 8 dereferenceable(105) %0, ptr noundef nonnull align 4 dereferenceable(4) %5)
  br label %_ZNK6icu_7717RuleBasedTimeZone13completeConstER10UErrorCode.exit

_ZNK6icu_7717RuleBasedTimeZone13completeConstER10UErrorCode.exit: ; preds = %4, %11
  call void @umtx_unlock_77(ptr noundef nonnull @_ZZNK6icu_7717RuleBasedTimeZone13completeConstER10UErrorCodeE5gLock)
  %12 = load i32, ptr %5, align 4, !tbaa !21
  %13 = icmp slt i32 %12, 1
  br i1 %13, label %14, label %21

14:                                               ; preds = %_ZNK6icu_7717RuleBasedTimeZone13completeConstER10UErrorCode.exit
  call void @llvm.lifetime.start.p0(i64 8, ptr nonnull %6) #14
  call void @llvm.lifetime.start.p0(i64 8, ptr nonnull %7) #14
  call void @llvm.lifetime.start.p0(i64 8, ptr nonnull %8) #14
  %15 = call noundef signext i8 @_ZNK6icu_7717RuleBasedTimeZone8findNextEdaRdRPNS_12TimeZoneRuleES4_(ptr noundef nonnull align 8 dereferenceable(105) %0, double noundef %1, i8 noundef signext %2, ptr noundef nonnull align 8 dereferenceable(8) %6, ptr noundef nonnull align 8 dereferenceable(8) %7, ptr noundef nonnull align 8 dereferenceable(8) %8)
  %.not7 = icmp eq i8 %15, 0
  br i1 %.not7, label %20, label %16

16:                                               ; preds = %14
  %17 = load double, ptr %6, align 8, !tbaa !34
  call void @_ZN6icu_7718TimeZoneTransition7setTimeEd(ptr noundef nonnull align 8 dereferenceable(32) %3, double noundef %17)
  %18 = load ptr, ptr %7, align 8, !tbaa !51
  call void @_ZN6icu_7718TimeZoneTransition7setFromERKNS_12TimeZoneRuleE(ptr noundef nonnull align 8 dereferenceable(32) %3, ptr noundef nonnull align 8 dereferenceable(80) %18)
  %19 = load ptr, ptr %8, align 8, !tbaa !51
  call void @_ZN6icu_7718TimeZoneTransition5setToERKNS_12TimeZoneRuleE(ptr noundef nonnull align 8 dereferenceable(32) %3, ptr noundef nonnull align 8 dereferenceable(80) %19)
  br label %20

20:                                               ; preds = %14, %16
  %.1 = phi i8 [ 1, %16 ], [ 0, %14 ]
  call void @llvm.lifetime.end.p0(i64 8, ptr nonnull %8) #14
  call void @llvm.lifetime.end.p0(i64 8, ptr nonnull %7) #14
  call void @llvm.lifetime.end.p0(i64 8, ptr nonnull %6) #14
  br label %21

21:                                               ; preds = %_ZNK6icu_7717RuleBasedTimeZone13completeConstER10UErrorCode.exit, %20
  %.0 = phi i8 [ %.1, %20 ], [ 0, %_ZNK6icu_7717RuleBasedTimeZone13completeConstER10UErrorCode.exit ]
  call void @llvm.lifetime.end.p0(i64 4, ptr nonnull %5) #14
  ret i8 %.0
}